target datalayout = "e-m:e-p270:32:32-p271:32:32-p272:64:64-i64:64-i128:128-f80:128-n8:16:32:64-S128"
target triple = "x86_64-pc-linux-gnu"

%struct.H5O_loc_t = type { ptr, i64, i8 }

@.str.4 = private unnamed_addr constant [100 x i8] c"generated/home/dtcxzyw/WorkSpace/Projects/compilers/llvm-opt-benchmark/bench/hdf5/hdf5/src/H5Oint.c\00", align 1
@H5E_CANTCLOSEFILE_g = external global i64, align 8
@__func__.H5O_loc_free = private unnamed_addr constant [13 x i8] c"H5O_loc_free\00", align 1
@H5E_FILE_g = external global i64, align 8
@.str.64 = private unnamed_addr constant [17 x i8] c"can't close file\00", align 1

; Function Attrs: nounwind uwtable
define i32 @H5O_loc_free(ptr noundef %0) #0 {
  %2 = alloca ptr, align 8
  %3 = alloca i32, align 4
  %4 = alloca i8, align 1
  store ptr %0, ptr %2, align 8
  store i32 0, ptr %3, align 4
  store i8 0, ptr %4, align 1
  %5 = load ptr, ptr %2, align 8
  %6 = getelementptr inbounds %struct.H5O_loc_t, ptr %5, i32 0, i32 2
  %7 = load i8, ptr %6, align 8
  %8 = trunc i8 %7 to i1
  br i1 %8, label %9, label %44

9:                                                ; preds = %1
  %10 = load ptr, ptr %2, align 8
  %11 = getelementptr inbounds %struct.H5O_loc_t, ptr %10, i32 0, i32 0
  %12 = load ptr, ptr %11, align 8
  %13 = call i32 @H5F_decr_nopen_objs(ptr noundef %12)
  %14 = load ptr, ptr %2, align 8
  %15 = getelementptr inbounds %struct.H5O_loc_t, ptr %14, i32 0, i32 2
  store i8 0, ptr %15, align 8
  %16 = load ptr, ptr %2, align 8
  %17 = getelementptr inbounds %struct.H5O_loc_t, ptr %16, i32 0, i32 0
  %18 = load ptr, ptr %17, align 8
  %19 = call i32 @H5F_get_nopen_objs(ptr noundef %18)
  %20 = icmp ule i32 %19, 0
  br i1 %20, label %21, label %43

21:                                               ; preds = %9
  %22 = load ptr, ptr %2, align 8
  %23 = getelementptr inbounds %struct.H5O_loc_t, ptr %22, i32 0, i32 0
  %24 = load ptr, ptr %23, align 8
  %25 = call i32 @H5F_try_close(ptr noundef %24, ptr noundef null)
  %26 = icmp slt i32 %25, 0
  br i1 %26, label %27, label %42

27:                                               ; preds = %21
  br label %28

28:                                               ; preds = %27
  br label %29

29:                                               ; preds = %28
  br label %30

30:                                               ; preds = %29
  %31 = load i64, ptr @H5E_FILE_g, align 8
  %32 = load i64, ptr @H5E_CANTCLOSEFILE_g, align 8
  %33 = call i32 (ptr, ptr, i32, i64, i64, ptr, ...) @H5E_printf_stack(ptr noundef @.str.4, ptr noundef @__func__.H5O_loc_free, i32 noundef 1935, i64 noundef %31, i64 noundef %32, ptr noundef @.str.64)
  br label %34

34:                                               ; preds = %30
  store i8 1, ptr %4, align 1
  %35 = load i8, ptr %4, align 1
  %36 = trunc i8 %35 to i1
  %37 = zext i1 %36 to i8
  store i8 %37, ptr %4, align 1
  br label %38

38:                                               ; preds = %34
  br label %39

39:                                               ; preds = %38
  store i32 -1, ptr %3, align 4
  br label %45

40:                                               ; No predecessors!
  br label %41

41:                                               ; preds = %40
  br label %42

42:                                               ; preds = %41, %21
  br label %43

43:                                               ; preds = %42, %9
  br label %44

44:                                               ; preds = %43, %1
  br label %45

45:                                               ; preds = %44, %39
  %46 = load i32, ptr %3, align 4
  ret i32 %46
}