; Function Attrs: nounwind uwtable
define range(i32 -1, 1) i32 @H5O_loc_free(ptr nocapture noundef %0) local_unnamed_addr #1 {
  %2 = getelementptr inbounds i8, ptr %0, i64 16
  %3 = load i8, ptr %2, align 8
  %4 = trunc i8 %3 to i1
  br i1 %4, label %5, label %19

5:                                                ; preds = %1
  %6 = load ptr, ptr %0, align 8
  %7 = tail call i32 @H5F_decr_nopen_objs(ptr noundef %6) #11
  store i8 0, ptr %2, align 8
  %8 = load ptr, ptr %0, align 8
  %9 = tail call i32 @H5F_get_nopen_objs(ptr noundef %8) #11
  %10 = icmp eq i32 %9, 0
  br i1 %10, label %11, label %19

11:                                               ; preds = %5
  %12 = load ptr, ptr %0, align 8
  %13 = tail call i32 @H5F_try_close(ptr noundef %12, ptr noundef null) #11
  %14 = icmp slt i32 %13, 0
  br i1 %14, label %15, label %19

15:                                               ; preds = %11
  %16 = load i64, ptr @H5E_FILE_g, align 8
  %17 = load i64, ptr @H5E_CANTCLOSEFILE_g, align 8
  %18 = tail call i32 (ptr, ptr, i32, i64, i64, ptr, ...) @H5E_printf_stack(ptr noundef nonnull @.str.4, ptr noundef nonnull @__func__.H5O_loc_free, i32 noundef 1935, i64 noundef %16, i64 noundef %17, ptr noundef nonnull @.str.64) #11
  br label %19

19:                                               ; preds = %1, %11, %5, %15
  %.0 = phi i32 [ -1, %15 ], [ 0, %11 ], [ 0, %5 ], [ 0, %1 ]
  ret i32 %.0
}